; Function Attrs: mustprogress nofree norecurse nosync nounwind sspstrong willreturn memory(readwrite, inaccessiblemem: none) uwtable
define internal noundef i64 @gc_profile_enable(i64 %0) #10 {
  %2 = load ptr, ptr @ruby_current_vm_ptr, align 8, !tbaa !62
  %3 = getelementptr inbounds nuw i8, ptr %2, i64 1296
  %4 = load ptr, ptr %3, align 8, !tbaa !63
  %5 = getelementptr inbounds nuw i8, ptr %4, i64 904
  store i32 1, ptr %5, align 8, !tbaa !505
  %6 = getelementptr inbounds nuw i8, ptr %4, i64 920
  store ptr null, ptr %6, align 8, !tbaa !510
  ret i64 4
}